Certificate:
    Data:
        Version: 3 (0x2)
        Serial Number: 1939374153 (0x73988049)
    Signature Algorithm: sha256WithRSAEncryption
        Issuer: C=BR, ST=Distrito Federal, L=Brasilia, O=MP, OU=PEN, CN=Interoperabilidade
        Validity
            Not Before: Aug  7 01:06:10 2020 GMT
            Not After : Aug  5 01:06:10 2030 GMT
        Subject: CN=BancoNacionaldeDesenvolvimentoEconmicoeSocial
        Subject Public Key Info:
            Public Key Algorithm: rsaEncryption
                Public-Key: (2048 bit)
                Modulus:
                    00:c6:9c:b6:69:fd:e1:54:12:ba:ea:3f:97:b4:fa:
                    84:59:e6:4d:63:98:e7:f9:68:89:af:56:d9:c8:92:
                    e5:62:a1:8c:e2:4b:c0:02:80:07:04:ab:1f:15:6b:
                    a5:ee:91:f3:1b:e8:23:a7:b6:37:ce:05:ae:d5:75:
                    40:ed:45:d4:c9:5e:2b:ea:4f:17:24:f7:f3:c2:4c:
                    54:30:f8:8d:90:47:5e:a0:e8:79:8d:d8:8a:72:cd:
                    75:7f:c3:7d:d5:65:b1:38:6b:19:70:d6:9d:22:83:
                    d4:ea:87:dd:8a:28:43:0a:dc:a0:0e:76:43:2b:a8:
                    a7:b4:6f:3e:87:83:3f:e5:a4:e8:29:6f:27:af:50:
                    84:62:ca:fa:db:fd:1e:bc:60:6f:81:21:ce:70:5f:
                    3d:ea:96:53:4c:19:47:04:f3:72:b5:46:1f:39:7a:
                    8f:60:58:e4:e9:ee:78:f2:aa:6b:6e:3f:9d:eb:d2:
                    58:3d:b9:76:dc:ba:91:29:e4:fd:c3:cf:3e:f6:25:
                    83:ee:5d:ab:bd:78:6f:9e:6c:1b:43:27:16:77:c3:
                    79:2b:bb:60:7c:f6:0f:72:07:72:b3:b7:44:13:36:
                    2b:1f:cc:94:59:c1:29:8f:27:2f:46:e5:b5:00:72:
                    16:f4:e9:bc:b3:08:ea:f6:5b:a6:b7:b2:24:86:4e:
                    5a:f1
                Exponent: 65537 (0x10001)
        X509v3 extensions:
            X509v3 Basic Constraints: 
                CA:FALSE
            Netscape Comment: 
                OpenSSL Generated Certificate
            X509v3 Subject Key Identifier: 
                4A:0B:2B:4B:4B:49:99:43:1D:62:E3:B6:33:C2:A4:8B:26:DD:15:9E
            X509v3 Authority Key Identifier: 
                keyid:98:DD:F8:EE:BB:D3:71:38:E3:61:F9:A4:1E:AB:93:A3:60:2D:ED:BB

    Signature Algorithm: sha256WithRSAEncryption
         be:b0:c3:56:71:98:c5:4f:86:d3:e7:81:f7:35:d8:4b:2a:c2:
         fb:73:c3:1e:a4:19:94:93:b4:e1:87:aa:f2:69:3f:43:6a:30:
         99:a1:d5:b8:0b:1d:5f:e7:bf:92:c4:68:95:bc:ab:8a:a3:7f:
         3d:9b:6e:ef:3b:71:53:62:91:8e:eb:37:a0:7e:d3:76:b2:14:
         c2:fd:a8:57:d5:2b:23:5b:bb:42:95:e9:95:df:f3:92:61:ab:
         3b:af:38:b9:1e:56:9e:53:c8:65:f8:ce:9d:7c:37:08:03:8e:
         c5:de:cc:06:71:87:3f:05:be:dd:cf:5c:7a:fa:e4:03:9f:e2:
         55:55:2d:19:6b:fd:a5:64:8e:c5:65:07:57:ed:e2:cf:59:f6:
         8c:6e:d8:3a:d4:23:08:7e:85:99:16:2f:bf:71:f2:d1:17:f3:
         dc:2e:58:92:c7:0a:d7:9a:18:4c:93:cf:d4:1f:e3:10:19:8b:
         42:4e:25:6a:4b:c1:c2:45:9b:e0:76:5b:8c:e8:6e:8f:0a:4a:
         4e:bf:2f:8b:40:e6:03:83:f0:6d:c4:b1:f2:2d:61:4a:29:d0:
         05:71:02:dc:2b:c7:16:42:81:51:bf:18:81:28:42:59:38:fa:
         92:44:ca:3b:43:e0:9c:d1:94:94:6a:1c:79:1c:73:78:1e:4b:
         80:b2:9d:72
-----BEGIN CERTIFICATE-----
MIIDpDCCAoygAwIBAgIEc5iASTANBgkqhkiG9w0BAQsFADBzMQswCQYDVQQGEwJC
UjEZMBcGA1UECAwQRGlzdHJpdG8gRmVkZXJhbDERMA8GA1UEBwwIQnJhc2lsaWEx
CzAJBgNVBAoMAk1QMQwwCgYDVQQLDANQRU4xGzAZBgNVBAMMEkludGVyb3BlcmFi
aWxpZGFkZTAeFw0yMDA4MDcwMTA2MTBaFw0zMDA4MDUwMTA2MTBaMDgxNjA0BgNV
BAMTLUJhbmNvTmFjaW9uYWxkZURlc2Vudm9sdmltZW50b0Vjb25taWNvZVNvY2lh
bDCCASIwDQYJKoZIhvcNAQEBBQADggEPADCCAQoCggEBAMactmn94VQSuuo/l7T6
hFnmTWOY5/loia9W2ciS5WKhjOJLwAKABwSrHxVrpe6R8xvoI6e2N84FrtV1QO1F
1MleK+pPFyT388JMVDD4jZBHXqDoeY3YinLNdX/DfdVlsThrGXDWnSKD1OqH3Yoo
QwrcoA52Qyuop7RvPoeDP+Wk6ClvJ69QhGLK+tv9Hrxgb4EhznBfPeqWU0wZRwTz
crVGHzl6j2BY5OnuePKqa24/nevSWD25dty6kSnk/cPPPvYlg+5dq714b55sG0Mn
FnfDeSu7YHz2D3IHcrO3RBM2Kx/MlFnBKY8nL0bltQByFvTpvLMI6vZbpreyJIZO
WvECAwEAAaN7MHkwCQYDVR0TBAIwADAsBglghkgBhvhCAQ0EHxYdT3BlblNTTCBH
ZW5lcmF0ZWQgQ2VydGlmaWNhdGUwHQYDVR0OBBYEFEoLK0tLSZlDHWLjtjPCpIsm
3RWeMB8GA1UdIwQYMBaAFJjd+O6703E442H5pB6rk6NgLe27MA0GCSqGSIb3DQEB
CwUAA4IBAQC+sMNWcZjFT4bT54H3NdhLKsL7c8MepBmUk7Thh6ryaT9DajCZodW4
Cx1f57+SxGiVvKuKo389m27vO3FTYpGO6zegftN2shTC/ahX1SsjW7tClemV3/OS
Yas7rzi5HlaeU8hl+M6dfDcIA47F3swGcYc/Bb7dz1x6+uQDn+JVVS0Za/2lZI7F
ZQdX7eLPWfaMbtg61CMIfoWZFi+/cfLRF/PcLliSxwrXmhhMk8/UH+MQGYtCTiVq
S8HCRZvgdluM6G6PCkpOvy+LQOYDg/BtxLHyLWFKKdAFcQLcK8cWQoFRvxiBKEJZ
OPqSRMo7Q+Cc0ZSUahx5HHN4HkuAsp1y
-----END CERTIFICATE-----
-----BEGIN RSA PRIVATE KEY-----
Proc-Type: 4,ENCRYPTED
DEK-Info: DES-EDE3-CBC,CD4420156310137F

ZOE2EdZZDiWIhjuHUd1GdRO5K2w7xin3xxvgNZq+mGj3JIu0zHxi5WVaxYG31wYl
z/h+42qEucyaoeZiqtm4w6LFLUFPPMfz7jQQcZYvsH0kiInGlXTtHRF/VaytDEuh
YZx8gRN/EIYN0KI2H+ad7ppdGIMahr3DuFVga2hYy6XrJE4QFSxhyqBMihe5px94
jzYXtJwFV0QYZtrwSksw9R0Zag322Zcmrm0SfLCOxAePx4oo4t4Vth3gGnsoDJqN
iZ9fFMh5WTh/bIAmeqxrwUsg000BGM+zAzxU0NXVKW3NgOLw9x6N/Hb+T1JvBZd5
a8p09c/t5jLT4qsqidwf1bjsRsxcnDf2tXEnkjPFHYFS9QvKk6qOSHUzoquRNmIl
iqlT7FGETu0Ws5/pNOWMRQRgzcQhgGA/XRj2z0m4QyJdbFfpuEmMdkVngsX/uTVi
DIBgenpL+Tr4piliFmDLbcyUKUP0olus8XbwPpxIbrwLW3iG/AtZ9080LeTnq57V
UGMjipZVaJvHyvg/i/I8W1N2IG+76i1mupip4mzfETq46Hy18sRSV7tnXYzSbsfc
HN0tQBjgQmGieeyVrHrQKwuFNkb2bLFrWulbvj+GM7TjvdQ6Uk+QkBUBt3Q23CW/
qRDilNU9eUZUBP3nVFqFA2zpW0I+BkraeVRoCVv/ig8v9LutVC/Br1cdFquBzwJo
s2A8PYdSlKzwRLYv8ArfevHaO8AvoH3AhQBSi7nNhFaWs3hbvSD0DP0s8QQ+kwqL
RtTgacSsyB31tpgBCcNH1ak84WDQnF+ndCqXzVLrbG9BuGY9nUkxO3jJ1INKcuwr
qREpkLYcgytui5CXz+r81ZXUlo/+FDJVYeviJtNpfsGYrALc8/xHDmt2jdizEEMF
qRcfmssvTq379NqwS+IuOihrKjihSVf+2sd322kiBMA+Du5tisFboxtUh0VAp5gx
e8vQ4c+6tCDCcP9CE99CDbKxGcdkad6rScxO8VukBBfGS61HGueL1YtgC4VggU5g
BwacXHwcPXCuK3bfS7xQft4oqzQnyEXV2jxzblw+Di+cBWtqJRpP9uscWkWoCtdX
IAvu2nktQS1Ltp0lOrvQRApyGk6Les7ndAUuxuk/o++sM2aZDoHghQW0+CWL6NWI
eofuZSu2tg5QLKd2cliMI8xQHhhC0vbCE6UWm3uV6dBmLdY88kamU+6aEpOyy3W0
ILBXEMfcEc71LaVC3vPwz4m3hHs2DLLOQ7JYT+tcHRI76KoiRIHTjndilE5sK1+5
GKDXVTkWgA9V/bIJdoA25mQcBivTXLtgrQxezq2jDlTMCJ6mI+HcFRFP9Wjl8w6O
y2hCsDb1Y6LQokELn5+dTUZCXNTn8vets7CCtcnuuEBrnqBGbU1MycXObbJ0AZAC
uAc1FraMjDAW/bQEreG3flTgLzq2HaxX4gRIXmoTCi9FeBMCTEV2ND+vg2RiVwfr
VBvkAkVixSTbmUmQnS/6e2DB1WZL2xDmWgQAoTkNobjtBrPgTqV2TYdM3wH64B7g
SpCsucBCurZwDdYc+XQCsE+0966JVRd6Kdd8MsNngoxqdZ/garaFCA==
-----END RSA PRIVATE KEY-----
