Certificate:
    Data:
        Version: 3 (0x2)
        Serial Number: 1939374154 (0x7398804a)
    Signature Algorithm: sha256WithRSAEncryption
        Issuer: C=BR, ST=Distrito Federal, L=Brasilia, O=MP, OU=PEN, CN=Interoperabilidade
        Validity
            Not Before: Aug  7 01:47:22 2020 GMT
            Not After : Aug  5 01:47:22 2030 GMT
        Subject: CN=CGPRO
        Subject Public Key Info:
            Public Key Algorithm: rsaEncryption
                Public-Key: (2048 bit)
                Modulus:
                    00:b0:a2:e9:9b:b4:e5:b1:64:d4:64:84:79:e6:15:
                    9b:bb:9d:ea:87:51:8e:80:ab:45:7b:b4:da:95:9a:
                    cb:7a:7f:12:43:9b:0d:dc:6b:07:12:96:95:a3:eb:
                    52:92:f5:3b:6a:f5:e2:71:2a:dd:1d:30:20:84:1b:
                    ca:9f:b7:28:7b:46:79:8c:f4:a0:2b:03:31:76:35:
                    be:9c:6d:51:c6:83:df:d1:63:1f:42:d1:c6:dc:cc:
                    91:70:5e:70:56:17:dc:27:04:fe:80:d3:60:91:ad:
                    fc:38:ea:00:cd:ec:31:62:16:b9:2c:5e:87:26:61:
                    92:be:e5:38:ee:01:2b:c2:9d:28:40:19:bd:1f:16:
                    45:55:db:76:6e:e5:b1:39:1c:fa:21:e1:86:66:f2:
                    95:40:6f:07:b6:54:31:12:37:8d:b0:b2:4b:5f:4c:
                    cc:db:b8:57:a5:5e:96:92:d2:be:23:06:ec:02:b2:
                    fb:85:e4:8b:93:b9:a1:f1:90:f5:82:ad:1d:92:76:
                    db:fd:7d:ff:0c:ae:9e:c9:76:76:a7:42:42:25:7b:
                    5e:84:9c:c3:29:e3:e9:56:84:36:76:1c:e7:d7:84:
                    0e:fe:96:7f:7d:1a:77:69:e4:1c:89:41:aa:43:63:
                    83:bf:52:a9:4d:f9:d4:1f:d5:d1:13:f6:6f:2f:bd:
                    e5:0f
                Exponent: 65537 (0x10001)
        X509v3 extensions:
            X509v3 Basic Constraints: 
                CA:FALSE
            Netscape Comment: 
                OpenSSL Generated Certificate
            X509v3 Subject Key Identifier: 
                24:04:2A:1A:EC:E7:CA:C1:2D:90:EA:7A:97:39:E0:2E:7E:03:71:D1
            X509v3 Authority Key Identifier: 
                keyid:98:DD:F8:EE:BB:D3:71:38:E3:61:F9:A4:1E:AB:93:A3:60:2D:ED:BB

    Signature Algorithm: sha256WithRSAEncryption
         93:33:86:09:17:ef:44:45:f0:40:1e:98:5f:d1:29:43:70:9a:
         b3:9c:75:13:f9:59:86:d5:51:75:e4:bc:9c:0f:c1:d4:90:4c:
         2e:81:2e:1f:1c:c5:07:14:21:55:6a:b3:e0:1a:31:ea:e4:75:
         db:25:5d:db:fd:73:91:49:46:c2:15:27:b8:2f:de:43:b8:ab:
         b7:7e:bb:4a:5d:90:a6:8a:24:f2:41:fa:0d:a9:e1:2f:09:54:
         e3:84:42:fd:61:ab:59:74:5e:16:a3:c0:c4:a6:a1:00:a4:35:
         51:9c:c2:54:73:ed:b2:9e:af:93:77:4d:85:bb:0e:fa:a0:dc:
         d8:1c:56:56:2b:36:eb:e9:a2:46:0d:b3:c8:41:98:85:52:b3:
         b9:3a:33:d3:64:df:ee:ea:a2:40:f8:c3:cb:17:57:4a:c9:73:
         8c:a2:ca:fe:46:fb:90:3c:3e:14:6d:b3:af:5b:2a:bb:b0:ed:
         e4:e6:4d:f0:6f:b3:e2:d8:7c:7a:e6:0e:ff:72:dc:88:e4:94:
         57:19:a5:5d:f4:cb:69:a4:5c:b8:ba:1f:8d:3c:3c:71:c9:5b:
         af:fe:f3:2c:4d:d6:71:22:37:0c:cf:08:7c:01:e8:34:2f:b9:
         15:7a:ee:a9:64:7c:df:6a:cc:83:b4:d7:ad:cc:4d:8b:58:ff:
         13:49:fc:f2
-----BEGIN CERTIFICATE-----
MIIDfDCCAmSgAwIBAgIEc5iASjANBgkqhkiG9w0BAQsFADBzMQswCQYDVQQGEwJC
UjEZMBcGA1UECAwQRGlzdHJpdG8gRmVkZXJhbDERMA8GA1UEBwwIQnJhc2lsaWEx
CzAJBgNVBAoMAk1QMQwwCgYDVQQLDANQRU4xGzAZBgNVBAMMEkludGVyb3BlcmFi
aWxpZGFkZTAeFw0yMDA4MDcwMTQ3MjJaFw0zMDA4MDUwMTQ3MjJaMBAxDjAMBgNV
BAMTBUNHUFJPMIIBIjANBgkqhkiG9w0BAQEFAAOCAQ8AMIIBCgKCAQEAsKLpm7Tl
sWTUZIR55hWbu53qh1GOgKtFe7TalZrLen8SQ5sN3GsHEpaVo+tSkvU7avXicSrd
HTAghBvKn7coe0Z5jPSgKwMxdjW+nG1RxoPf0WMfQtHG3MyRcF5wVhfcJwT+gNNg
ka38OOoAzewxYha5LF6HJmGSvuU47gErwp0oQBm9HxZFVdt2buWxORz6IeGGZvKV
QG8HtlQxEjeNsLJLX0zM27hXpV6WktK+IwbsArL7heSLk7mh8ZD1gq0dknbb/X3/
DK6eyXZ2p0JCJXtehJzDKePpVoQ2dhzn14QO/pZ/fRp3aeQciUGqQ2ODv1KpTfnU
H9XRE/ZvL73lDwIDAQABo3sweTAJBgNVHRMEAjAAMCwGCWCGSAGG+EIBDQQfFh1P
cGVuU1NMIEdlbmVyYXRlZCBDZXJ0aWZpY2F0ZTAdBgNVHQ4EFgQUJAQqGuznysEt
kOp6lzngLn4DcdEwHwYDVR0jBBgwFoAUmN347rvTcTjjYfmkHquTo2At7bswDQYJ
KoZIhvcNAQELBQADggEBAJMzhgkX70RF8EAemF/RKUNwmrOcdRP5WYbVUXXkvJwP
wdSQTC6BLh8cxQcUIVVqs+AaMerkddslXdv9c5FJRsIVJ7gv3kO4q7d+u0pdkKaK
JPJB+g2p4S8JVOOEQv1hq1l0XhajwMSmoQCkNVGcwlRz7bKer5N3TYW7Dvqg3Ngc
VlYrNuvpokYNs8hBmIVSs7k6M9Nk3+7qokD4w8sXV0rJc4yiyv5G+5A8PhRts69b
Kruw7eTmTfBvs+LYfHrmDv9y3IjklFcZpV30y2mkXLi6H408PHHJW6/+8yxN1nEi
NwzPCHwB6DQvuRV67qlkfN9qzIO0163MTYtY/xNJ/PI=
-----END CERTIFICATE-----
-----BEGIN RSA PRIVATE KEY-----
Proc-Type: 4,ENCRYPTED
DEK-Info: DES-EDE3-CBC,951063639E20041A

GfW4FxNQide7jn1xZiNo/I4ybdCA+FFKo9U9Wo55tbYNipa7zrIynOaqavOuFcgj
GG4smP1XNq+YytYm81afjQWOvbeKmQHpacbym0MyVFdTIOmGMO/aCfVMJyu7h1S+
xw5EasDvTzc15CTNeC/H7hD2kQUQN85QPDboYFZXC3Tb/gxJs6fGa6R9chA7IDM5
YyftVJ8FwnNpSQFB+/LcCJzSbxryLh3+7KKstPAScXpJtqt5RDdOGAGPQ3uHay09
+OlVBCLw4P07AY2pNbSK3zbTkohb+GpE0jZ5S1qWlRESNxbJXTa7DhEXIoTXaOTl
iq3aLTaHHDZXMAvkZkAffVf92SL59Gnd8nQC/gB3QDkjI9O6Q86zrfmy1/Szp++V
gpPeUJpt9gZapOPIyNcL9Vnqip2qPrbyZ1Yj7fHJM+80Mw1rHRjEYv2y6n4yZdj2
QznrbG3SFsfrORwZ4RLl/vBq3gHcBPoiXx5rcF/CqpSLCEMLImQe0xYFpzMi9D06
CIDp6jhMHU1MMO5qQbt7C4pFTY+xEmRg5ELeBvv507p6ufExJu4Vfx+7woUncqy5
Wf5XrOYKEvG1cCvernXx2DneY9mvFrjyt2Aa7ApQXjInoQ5KbNFFdvrwdEcQJLqT
3USiOZex4Ge3Gyx+s8NC/b9Rk6jJH0hq6kOa8FAizXkcYrGuVhro6Z//yv5Bx+qF
V8WfokWsd92HQqM3DpXYrf6HlJhWeGkvQ5IZlge3GMVGqBQ+px1RmtXils0CPgMJ
7XlDNmg3P4QF1yNKpV29c/zgvgiSjigda2XmPuFfq+2oq1kHjEiv7/L+49kzysyA
c3Odr3TCwe3Ky5SwTurRkXUfTAhVchyKKuUHq2szi+VKTx8GzN/3SLehS8OERO5E
Z0xZFY/vm2EF/jc3qUAIK1XpvRzvIYVuPqWBEH46zSTXhwajeiJedvTJITnvlG2z
Iz//gjbb9wtlmdW6iFsjLlXcTdfQvrspbLHaDe0DTnz/ZnkF9uS9n348/d1v+Tnt
WQri9/GGf53JoCTCpzVY9M3068Gwn0nGzFVbpcuU3SuEEc64tQhfWzXqWQuF2Ufz
+aBv6OPl6J3N3uooDUkznseAhqehUEflUK30p5w6o/R6QYA9zeI+yQiKAF8Wi7Wq
e5SX+4uCLgI+aPOTAHKdEYQEcTo40hxe54+cO/VlpXSbTQx9IIVE3RnN75PYHRZV
zMuRDWefIigmI6tEGzxUyryMIL18CiVXuCY4+/eVNBoov4CLzahpF7M+SmHnHbZ5
NKDSiJlAf1ZibqcnOTwSNvRFvjxLKPRWLQuAqx9SQ4brqlQBvUgiKJJk5xsmvC2z
1dGFdcnBf6dU32ZFw4IiMOwftMb4P/dgFa8oLMMLf0Gkd0AXtqEc9I/W75juLmz6
+rmvrhhijBHTupXwnN7Hdt7BCU51WPpE+YoUpkM5EZTFfcCO5xlFMxBEv5WMBvt1
frAhDi46Fx0m1s+/KA+Sqxtvxg7kvanh1zRtYjhToFfmav+v3E4IlKSXks2nR3+t
mmduS6W4aKYKeDnI9dV6u9ehjbKGc50hlDUwsQJqg7PlKLiVlg8XKw==
-----END RSA PRIVATE KEY-----
